target datalayout = "e-m:e-p270:32:32-p271:32:32-p272:64:64-i64:64-i128:128-f80:128-n8:16:32:64-S128"
target triple = "x86_64-pc-linux-gnu"

%class.JVMFlag = type { ptr, ptr, i32, i32 }

; Function Attrs: mustprogress nounwind uwtable
define linkonce_odr hidden noundef ptr @_ZN13JVMFlagAccess11access_implEPK7JVMFlag(ptr noundef %0) #1 comdat align 2 {
  %2 = alloca ptr, align 8
  %3 = alloca i32, align 4
  %4 = alloca i32, align 4
  store ptr %0, ptr %2, align 8
  %5 = load ptr, ptr %2, align 8
  %6 = call noundef i32 @_ZNK7JVMFlag4typeEv(ptr noundef nonnull align 8 dereferenceable(24) %5)
  store i32 %6, ptr %3, align 4
  store i32 10, ptr %4, align 4
  %7 = load i32, ptr %3, align 4
  %8 = sext i32 %7 to i64
  %9 = getelementptr inbounds [10 x ptr], ptr @_ZL12flag_accesss, i64 0, i64 %8
  %10 = load ptr, ptr %9, align 8
  ret ptr %10
}

; Function Attrs: mustprogress nounwind uwtable
define linkonce_odr hidden noundef ptr @_ZNK7JVMFlag9get_ccstrEv(ptr noundef nonnull align 8 dereferenceable(24) %0) #1 comdat align 2 {
  %2 = alloca ptr, align 8
  store ptr %0, ptr %2, align 8
  %3 = load ptr, ptr %2, align 8
  %4 = getelementptr inbounds %class.JVMFlag, ptr %3, i32 0, i32 0
  %5 = load ptr, ptr %4, align 8
  %6 = load ptr, ptr %5, align 8
  ret ptr %6
}

; Function Attrs: mustprogress nounwind uwtable
define linkonce_odr hidden noundef i32 @_ZNK7JVMFlag4typeEv(ptr noundef nonnull align 8 dereferenceable(24) %0) #1 comdat align 2 {
  %2 = alloca ptr, align 8
  store ptr %0, ptr %2, align 8
  %3 = load ptr, ptr %2, align 8
  %4 = getelementptr inbounds %class.JVMFlag, ptr %3, i32 0, i32 3
  %5 = load i32, ptr %4, align 4
  ret i32 %5
}

; Function Attrs: mustprogress nounwind uwtable
define hidden noundef i32 @_ZN13JVMFlagAccess16check_constraintEPK7JVMFlagPvb(ptr noundef %0, ptr noundef %1, i1 noundef zeroext %2) #1 align 2 {
  %4 = alloca i32, align 4
  %5 = alloca ptr, align 8
  %6 = alloca ptr, align 8
  %7 = alloca i8, align 1
  %8 = alloca i32, align 4
  store ptr %0, ptr %5, align 8
  store ptr %1, ptr %6, align 8
  %9 = zext i1 %2 to i8
  store i8 %9, ptr %7, align 1
  %10 = load ptr, ptr %5, align 8
  %11 = call noundef i32 @_ZNK7JVMFlag4typeEv(ptr noundef nonnull align 8 dereferenceable(24) %10)
  store i32 %11, ptr %8, align 4
  %12 = load i32, ptr %8, align 4
  %13 = icmp eq i32 %12, 8
  br i1 %13, label %17, label %14

14:                                               ; preds = %3
  %15 = load i32, ptr %8, align 4
  %16 = icmp eq i32 %15, 9
  br i1 %16, label %17, label %24

17:                                               ; preds = %14, %3
  %18 = load ptr, ptr %6, align 8
  %19 = load ptr, ptr %5, align 8
  %20 = call noundef ptr @_ZNK7JVMFlag9get_ccstrEv(ptr noundef nonnull align 8 dereferenceable(24) %19)
  %21 = load i8, ptr %7, align 1
  %22 = trunc i8 %21 to i1
  %23 = call noundef i32 %18(ptr noundef %20, i1 noundef zeroext %22)
  store i32 %23, ptr %4, align 4
  br label %35

24:                                               ; preds = %14
  %25 = load ptr, ptr %5, align 8
  %26 = call noundef ptr @_ZN13JVMFlagAccess11access_implEPK7JVMFlag(ptr noundef %25)
  %27 = load ptr, ptr %5, align 8
  %28 = load ptr, ptr %6, align 8
  %29 = load i8, ptr %7, align 1
  %30 = trunc i8 %29 to i1
  %31 = load ptr, ptr %26, align 8
  %32 = getelementptr inbounds ptr, ptr %31, i64 4
  %33 = load ptr, ptr %32, align 8
  %34 = call noundef i32 %33(ptr noundef nonnull align 8 dereferenceable(8) %26, ptr noundef %27, ptr noundef %28, i1 noundef zeroext %30)
  store i32 %34, ptr %4, align 4
  br label %35

35:                                               ; preds = %24, %17
  %36 = load i32, ptr %4, align 4
  ret i32 %36
}