; Function Attrs: mustprogress nounwind uwtable
define hidden noundef i32 @_ZN13JVMFlagAccess16check_constraintEPK7JVMFlagPvb(ptr noundef %0, ptr noundef %1, i1 noundef zeroext %2) local_unnamed_addr #0 align 2 {
  %4 = getelementptr inbounds i8, ptr %0, i64 20
  %5 = load i32, ptr %4, align 4
  %6 = and i32 %5, -2
  %or.cond = icmp eq i32 %6, 8
  br i1 %or.cond, label %7, label %11

7:                                                ; preds = %3
  %8 = load ptr, ptr %0, align 8
  %9 = load ptr, ptr %8, align 8
  %10 = tail call noundef i32 %1(ptr noundef %9, i1 noundef zeroext %2) #10
  br label %19

11:                                               ; preds = %3
  %12 = sext i32 %5 to i64
  %13 = getelementptr inbounds [10 x ptr], ptr @_ZL12flag_accesss, i64 0, i64 %12
  %14 = load ptr, ptr %13, align 8
  %15 = load ptr, ptr %14, align 8
  %16 = getelementptr inbounds i8, ptr %15, i64 32
  %17 = load ptr, ptr %16, align 8
  %18 = tail call noundef i32 %17(ptr noundef nonnull align 8 dereferenceable(8) %14, ptr noundef nonnull %0, ptr noundef %1, i1 noundef zeroext %2) #10
  br label %19

19:                                               ; preds = %11, %7
  %.0 = phi i32 [ %10, %7 ], [ %18, %11 ]
  ret i32 %.0
}